target datalayout = "e-m:e-p270:32:32-p271:32:32-p272:64:64-i64:64-i128:128-f80:128-n8:16:32:64-S128"
target triple = "x86_64-pc-linux-gnu"

%struct.prov_siv_ctx_st = type { i32, i8, i64, i64, %struct.siv128_context, ptr, ptr, ptr, ptr }
%struct.siv128_context = type { %union.siv_block_u, %union.siv_block_u, ptr, ptr, ptr, i32, i32 }
%union.siv_block_u = type { [2 x i64] }

@.str = private unnamed_addr constant [62 x i8] c"../openssl/providers/implementations/ciphers/cipher_aes_siv.c\00", align 1

; Function Attrs: nounwind uwtable
define internal ptr @aes_siv_newctx(ptr noundef %0, i64 noundef %1, i32 noundef %2, i64 noundef %3) #0 {
  %5 = alloca ptr, align 8
  %6 = alloca ptr, align 8
  %7 = alloca i64, align 8
  %8 = alloca i32, align 4
  %9 = alloca i64, align 8
  %10 = alloca ptr, align 8
  %11 = alloca i32, align 4
  store ptr %0, ptr %6, align 8, !tbaa !3
  store i64 %1, ptr %7, align 8, !tbaa !25
  store i32 %2, ptr %8, align 4, !tbaa !38
  store i64 %3, ptr %9, align 8, !tbaa !25
  call void @llvm.lifetime.start.p0(i64 8, ptr %10) #4
  %12 = call i32 @ossl_prov_is_running()
  %13 = icmp ne i32 %12, 0
  br i1 %13, label %15, label %14

14:                                               ; preds = %4
  store ptr null, ptr %5, align 8
  store i32 1, ptr %11, align 4
  br label %39

15:                                               ; preds = %4
  %16 = call noalias ptr @CRYPTO_zalloc(i64 noundef 120, ptr noundef @.str, i32 noundef 38)
  store ptr %16, ptr %10, align 8, !tbaa !7
  %17 = load ptr, ptr %10, align 8, !tbaa !7
  %18 = icmp ne ptr %17, null
  br i1 %18, label %19, label %37

19:                                               ; preds = %15
  %20 = load ptr, ptr %10, align 8, !tbaa !7
  %21 = getelementptr inbounds nuw %struct.prov_siv_ctx_st, ptr %20, i32 0, i32 3
  store i64 16, ptr %21, align 8, !tbaa !36
  %22 = load i32, ptr %8, align 4, !tbaa !38
  %23 = load ptr, ptr %10, align 8, !tbaa !7
  %24 = getelementptr inbounds nuw %struct.prov_siv_ctx_st, ptr %23, i32 0, i32 0
  store i32 %22, ptr %24, align 8, !tbaa !42
  %25 = load i64, ptr %7, align 8, !tbaa !25
  %26 = udiv i64 %25, 8
  %27 = load ptr, ptr %10, align 8, !tbaa !7
  %28 = getelementptr inbounds nuw %struct.prov_siv_ctx_st, ptr %27, i32 0, i32 2
  store i64 %26, ptr %28, align 8, !tbaa !37
  %29 = load i64, ptr %7, align 8, !tbaa !25
  %30 = call ptr @ossl_prov_cipher_hw_aes_siv(i64 noundef %29)
  %31 = load ptr, ptr %10, align 8, !tbaa !7
  %32 = getelementptr inbounds nuw %struct.prov_siv_ctx_st, ptr %31, i32 0, i32 7
  store ptr %30, ptr %32, align 8, !tbaa !9
  %33 = load ptr, ptr %6, align 8, !tbaa !3
  %34 = call ptr @ossl_prov_ctx_get0_libctx(ptr noundef %33)
  %35 = load ptr, ptr %10, align 8, !tbaa !7
  %36 = getelementptr inbounds nuw %struct.prov_siv_ctx_st, ptr %35, i32 0, i32 8
  store ptr %34, ptr %36, align 8, !tbaa !43
  br label %37

37:                                               ; preds = %19, %15
  %38 = load ptr, ptr %10, align 8, !tbaa !7
  store ptr %38, ptr %5, align 8
  store i32 1, ptr %11, align 4
  br label %39

39:                                               ; preds = %37, %14
  call void @llvm.lifetime.end.p0(i64 8, ptr %10) #4
  %40 = load ptr, ptr %5, align 8
  ret ptr %40
}

; Function Attrs: nounwind uwtable
define internal ptr @aes192siv_newctx(ptr noundef %0) #0 {
  %2 = alloca ptr, align 8
  store ptr %0, ptr %2, align 8, !tbaa !3
  %3 = load ptr, ptr %2, align 8, !tbaa !3
  %4 = call ptr @aes_siv_newctx(ptr noundef %3, i64 noundef 384, i32 noundef 65540, i64 noundef 3)
  ret ptr %4
}