; Function Attrs: nounwind uwtable
define internal noalias ptr @aes192siv_newctx(ptr noundef %0) #0 {
  %2 = tail call i32 @ossl_prov_is_running() #4
  %.not.i = icmp eq i32 %2, 0
  br i1 %.not.i, label %aes_siv_newctx.exit, label %3

3:                                                ; preds = %1
  %4 = tail call noalias ptr @CRYPTO_zalloc(i64 noundef 120, ptr noundef nonnull @.str, i32 noundef 38) #4
  %.not12.i = icmp eq ptr %4, null
  br i1 %.not12.i, label %aes_siv_newctx.exit, label %5

5:                                                ; preds = %3
  %6 = getelementptr inbounds nuw i8, ptr %4, i64 16
  store i64 16, ptr %6, align 8, !tbaa !3
  store i32 65540, ptr %4, align 8, !tbaa !17
  %7 = getelementptr inbounds nuw i8, ptr %4, i64 8
  store i64 48, ptr %7, align 8, !tbaa !18
  %8 = tail call ptr @ossl_prov_cipher_hw_aes_siv(i64 noundef 384) #4
  %9 = getelementptr inbounds nuw i8, ptr %4, i64 104
  store ptr %8, ptr %9, align 8, !tbaa !19
  %10 = tail call ptr @ossl_prov_ctx_get0_libctx(ptr noundef %0) #4
  %11 = getelementptr inbounds nuw i8, ptr %4, i64 112
  store ptr %10, ptr %11, align 8, !tbaa !20
  br label %aes_siv_newctx.exit

aes_siv_newctx.exit:                              ; preds = %1, %3, %5
  %.0.i = phi ptr [ null, %1 ], [ %4, %5 ], [ null, %3 ]
  ret ptr %.0.i
}